target datalayout = "e-m:e-p270:32:32-p271:32:32-p272:64:64-i64:64-i128:128-f80:128-n8:16:32:64-S128"
target triple = "x86_64-pc-linux-gnu"

%"class.Luau::TypePackRehydrationVisitor" = type { ptr, ptr, ptr }
%"struct.Luau::Location" = type { %"struct.Luau::Position", %"struct.Luau::Position" }
%"struct.Luau::Position" = type { i32, i32 }
%"struct.Luau::AstName" = type { ptr }

@.str.56 = private unnamed_addr constant [5 x i8] c"free\00", align 1

; Function Attrs: mustprogress nounwind uwtable
define linkonce_odr dso_local void @_ZN4Luau8PositionC2Ejj(ptr noundef nonnull align 4 dereferenceable(8) %0, i32 noundef %1, i32 noundef %2) unnamed_addr #3 comdat align 2 {
  %4 = alloca ptr, align 8
  %5 = alloca i32, align 4
  %6 = alloca i32, align 4
  store ptr %0, ptr %4, align 8, !tbaa !133
  store i32 %1, ptr %5, align 4, !tbaa !4
  store i32 %2, ptr %6, align 4, !tbaa !4
  %7 = load ptr, ptr %4, align 8
  %8 = getelementptr inbounds nuw %"struct.Luau::Position", ptr %7, i32 0, i32 0
  %9 = load i32, ptr %5, align 4, !tbaa !4
  store i32 %9, ptr %8, align 4, !tbaa !135
  %10 = getelementptr inbounds nuw %"struct.Luau::Position", ptr %7, i32 0, i32 1
  %11 = load i32, ptr %6, align 4, !tbaa !4
  store i32 %11, ptr %10, align 4, !tbaa !137
  ret void
}

; Function Attrs: mustprogress uwtable
define linkonce_odr dso_local noundef ptr @_ZN4Luau9Allocator5allocINS_18AstTypePackGenericEJNS_8LocationENS_7AstNameEEEEPT_DpOT0_(ptr noundef nonnull align 8 dereferenceable(16) %0, ptr noundef nonnull align 4 dereferenceable(16) %1, ptr noundef nonnull align 8 dereferenceable(8) %2) #2 comdat align 2 {
  %4 = alloca ptr, align 8
  %5 = alloca ptr, align 8
  %6 = alloca ptr, align 8
  %7 = alloca ptr, align 8
  %8 = alloca %"struct.Luau::AstName", align 8
  store ptr %0, ptr %4, align 8, !tbaa !31
  store ptr %1, ptr %5, align 8, !tbaa !123
  store ptr %2, ptr %6, align 8, !tbaa !125
  %9 = load ptr, ptr %4, align 8
  call void @llvm.lifetime.start.p0(i64 8, ptr %7) #19
  %10 = call noundef ptr @_ZN4Luau9Allocator8allocateEm(ptr noundef nonnull align 8 dereferenceable(16) %9, i64 noundef 40)
  store ptr %10, ptr %7, align 8, !tbaa !127
  %11 = load ptr, ptr %7, align 8, !tbaa !127
  %12 = load ptr, ptr %5, align 8, !tbaa !123
  %13 = load ptr, ptr %6, align 8, !tbaa !125
  call void @llvm.memcpy.p0.p0.i64(ptr align 8 %8, ptr align 8 %13, i64 8, i1 false), !tbaa.struct !129
  %14 = getelementptr inbounds nuw %"struct.Luau::AstName", ptr %8, i32 0, i32 0
  %15 = load ptr, ptr %14, align 8
  call void @_ZN4Luau18AstTypePackGenericC1ERKNS_8LocationENS_7AstNameE(ptr noundef nonnull align 8 dereferenceable(40) %11, ptr noundef nonnull align 4 dereferenceable(16) %12, ptr %15)
  %16 = load ptr, ptr %7, align 8, !tbaa !127
  call void @llvm.lifetime.end.p0(i64 8, ptr %7) #19
  ret ptr %16
}

; Function Attrs: mustprogress nounwind uwtable
define linkonce_odr dso_local void @_ZN4Luau7AstNameC2EPKc(ptr noundef nonnull align 8 dereferenceable(8) %0, ptr noundef %1) unnamed_addr #3 comdat align 2 {
  %3 = alloca ptr, align 8
  %4 = alloca ptr, align 8
  store ptr %0, ptr %3, align 8, !tbaa !125
  store ptr %1, ptr %4, align 8, !tbaa !130
  %5 = load ptr, ptr %3, align 8
  %6 = getelementptr inbounds nuw %"struct.Luau::AstName", ptr %5, i32 0, i32 0
  %7 = load ptr, ptr %4, align 8, !tbaa !130
  store ptr %7, ptr %6, align 8, !tbaa !131
  ret void
}

; Function Attrs: mustprogress uwtable
define linkonce_odr dso_local void @_ZN4Luau8LocationC2Ev(ptr noundef nonnull align 4 dereferenceable(16) %0) unnamed_addr #2 comdat align 2 {
  %2 = alloca ptr, align 8
  store ptr %0, ptr %2, align 8, !tbaa !123
  %3 = load ptr, ptr %2, align 8
  %4 = getelementptr inbounds nuw %"struct.Luau::Location", ptr %3, i32 0, i32 0
  call void @_ZN4Luau8PositionC2Ejj(ptr noundef nonnull align 4 dereferenceable(8) %4, i32 noundef 0, i32 noundef 0)
  %5 = getelementptr inbounds nuw %"struct.Luau::Location", ptr %3, i32 0, i32 1
  call void @_ZN4Luau8PositionC2Ejj(ptr noundef nonnull align 4 dereferenceable(8) %5, i32 noundef 0, i32 noundef 0)
  ret void
}

; Function Attrs: mustprogress uwtable
define linkonce_odr dso_local noundef ptr @_ZNK4Luau26TypePackRehydrationVisitorclERKNS_12FreeTypePackE(ptr noundef nonnull align 8 dereferenceable(24) %0, ptr noundef nonnull align 8 dereferenceable(24) %1) #2 comdat align 2 {
  %3 = alloca ptr, align 8
  %4 = alloca ptr, align 8
  %5 = alloca %"struct.Luau::Location", align 4
  %6 = alloca %"struct.Luau::AstName", align 8
  store ptr %0, ptr %3, align 8, !tbaa !29
  store ptr %1, ptr %4, align 8, !tbaa !138
  %7 = load ptr, ptr %3, align 8
  %8 = getelementptr inbounds nuw %"class.Luau::TypePackRehydrationVisitor", ptr %7, i32 0, i32 0
  %9 = load ptr, ptr %8, align 8, !tbaa !33
  call void @llvm.lifetime.start.p0(i64 16, ptr %5) #19
  call void @_ZN4Luau8LocationC2Ev(ptr noundef nonnull align 4 dereferenceable(16) %5)
  call void @llvm.lifetime.start.p0(i64 8, ptr %6) #19
  call void @_ZN4Luau7AstNameC2EPKc(ptr noundef nonnull align 8 dereferenceable(8) %6, ptr noundef @.str.56)
  %10 = call noundef ptr @_ZN4Luau9Allocator5allocINS_18AstTypePackGenericEJNS_8LocationENS_7AstNameEEEEPT_DpOT0_(ptr noundef nonnull align 8 dereferenceable(16) %9, ptr noundef nonnull align 4 dereferenceable(16) %5, ptr noundef nonnull align 8 dereferenceable(8) %6)
  call void @llvm.lifetime.end.p0(i64 8, ptr %6) #19
  call void @llvm.lifetime.end.p0(i64 16, ptr %5) #19
  ret ptr %10
}

; Function Attrs: mustprogress uwtable
define internal void @_ZN4LuauL8fnVisitRIRNS_26TypePackRehydrationVisitorEPNS_11AstTypePackEKNS_12FreeTypePackEEEvRT_RT0_PNSt11conditionalIXsr3stdE10is_const_vIT1_EEKvvE4typeE(ptr noundef nonnull align 8 dereferenceable(24) %0, ptr noundef nonnull align 8 dereferenceable(8) %1, ptr noundef %2) #2 {
  %4 = alloca ptr, align 8
  %5 = alloca ptr, align 8
  %6 = alloca ptr, align 8
  store ptr %0, ptr %4, align 8, !tbaa !29
  store ptr %1, ptr %5, align 8, !tbaa !115
  store ptr %2, ptr %6, align 8, !tbaa !41
  %7 = load ptr, ptr %4, align 8, !tbaa !29
  %8 = load ptr, ptr %6, align 8, !tbaa !41
  %9 = call noundef ptr @_ZNK4Luau26TypePackRehydrationVisitorclERKNS_12FreeTypePackE(ptr noundef nonnull align 8 dereferenceable(24) %7, ptr noundef nonnull align 8 dereferenceable(24) %8)
  %10 = load ptr, ptr %5, align 8, !tbaa !115
  store ptr %9, ptr %10, align 8, !tbaa !42
  ret void
}